target datalayout = "e-m:e-p270:32:32-p271:32:32-p272:64:64-i64:64-i128:128-f80:128-n8:16:32:64-S128"
target triple = "x86_64-pc-linux-gnu"

%"class.icu_77::MaybeStackArray" = type <{ ptr, i32, i8, [40 x i8], [3 x i8] }>
%"class.icu_77::BytesTrieElement" = type { i32, i32 }
%"class.icu_77::CharString" = type { %"class.icu_77::MaybeStackArray", i32, [4 x i8] }
%"class.icu_77::BytesTrieBuilder" = type { %"class.icu_77::StringTrieBuilder", ptr, ptr, i32, i32, ptr, i32, i32 }
%"class.icu_77::StringTrieBuilder" = type { %"class.icu_77::UObject", ptr }
%"class.icu_77::UObject" = type { ptr }

; Function Attrs: mustprogress nounwind uwtable
define weak_odr noundef ptr @_ZNK6icu_7715MaybeStackArrayIcLi40EE8getAliasEv(ptr noundef nonnull align 8 dereferenceable(53) %0) #0 comdat align 2 {
  %2 = alloca ptr, align 8
  store ptr %0, ptr %2, align 8, !tbaa !3
  %3 = load ptr, ptr %2, align 8
  %4 = getelementptr inbounds nuw %"class.icu_77::MaybeStackArray", ptr %3, i32 0, i32 0
  %5 = load ptr, ptr %4, align 8, !tbaa !8
  ret ptr %5
}

; Function Attrs: mustprogress nounwind uwtable
define linkonce_odr noundef ptr @_ZNK6icu_7710CharString4dataEv(ptr noundef nonnull align 8 dereferenceable(60) %0) #0 comdat align 2 {
  %2 = alloca ptr, align 8
  store ptr %0, ptr %2, align 8, !tbaa !25
  %3 = load ptr, ptr %2, align 8
  %4 = getelementptr inbounds nuw %"class.icu_77::CharString", ptr %3, i32 0, i32 0
  %5 = call noundef ptr @_ZNK6icu_7715MaybeStackArrayIcLi40EE8getAliasEv(ptr noundef nonnull align 8 dereferenceable(53) %4)
  ret ptr %5
}

; Function Attrs: mustprogress nounwind uwtable
define linkonce_odr noundef ptr @_ZNK6icu_7716BytesTrieElement4dataERKNS_10CharStringE(ptr noundef nonnull align 4 dereferenceable(8) %0, ptr noundef nonnull align 8 dereferenceable(60) %1) #0 comdat align 2 {
  %3 = alloca ptr, align 8
  %4 = alloca ptr, align 8
  %5 = alloca i32, align 4
  store ptr %0, ptr %3, align 8, !tbaa !23
  store ptr %1, ptr %4, align 8, !tbaa !25
  %6 = load ptr, ptr %3, align 8
  call void @llvm.lifetime.start.p0(i64 4, ptr %5) #12
  %7 = getelementptr inbounds nuw %"class.icu_77::BytesTrieElement", ptr %6, i32 0, i32 0
  %8 = load i32, ptr %7, align 4, !tbaa !27
  store i32 %8, ptr %5, align 4, !tbaa !14
  %9 = load i32, ptr %5, align 4, !tbaa !14
  %10 = icmp sge i32 %9, 0
  br i1 %10, label %11, label %14

11:                                               ; preds = %2
  %12 = load i32, ptr %5, align 4, !tbaa !14
  %13 = add nsw i32 %12, 1
  store i32 %13, ptr %5, align 4, !tbaa !14
  br label %18

14:                                               ; preds = %2
  %15 = load i32, ptr %5, align 4, !tbaa !14
  %16 = xor i32 %15, -1
  %17 = add nsw i32 %16, 2
  store i32 %17, ptr %5, align 4, !tbaa !14
  br label %18

18:                                               ; preds = %14, %11
  %19 = load ptr, ptr %4, align 8, !tbaa !25
  %20 = call noundef ptr @_ZNK6icu_7710CharString4dataEv(ptr noundef nonnull align 8 dereferenceable(60) %19)
  %21 = load i32, ptr %5, align 4, !tbaa !14
  %22 = sext i32 %21 to i64
  %23 = getelementptr inbounds i8, ptr %20, i64 %22
  call void @llvm.lifetime.end.p0(i64 4, ptr %5) #12
  ret ptr %23
}

; Function Attrs: mustprogress uwtable
define linkonce_odr noundef signext i8 @_ZNK6icu_7716BytesTrieElement6charAtEiRKNS_10CharStringE(ptr noundef nonnull align 4 dereferenceable(8) %0, i32 noundef %1, ptr noundef nonnull align 8 dereferenceable(60) %2) #1 comdat align 2 {
  %4 = alloca ptr, align 8
  %5 = alloca i32, align 4
  %6 = alloca ptr, align 8
  store ptr %0, ptr %4, align 8, !tbaa !23
  store i32 %1, ptr %5, align 4, !tbaa !14
  store ptr %2, ptr %6, align 8, !tbaa !25
  %7 = load ptr, ptr %4, align 8
  %8 = load ptr, ptr %6, align 8, !tbaa !25
  %9 = call noundef ptr @_ZNK6icu_7716BytesTrieElement4dataERKNS_10CharStringE(ptr noundef nonnull align 4 dereferenceable(8) %7, ptr noundef nonnull align 8 dereferenceable(60) %8)
  %10 = load i32, ptr %5, align 4, !tbaa !14
  %11 = sext i32 %10 to i64
  %12 = getelementptr inbounds i8, ptr %9, i64 %11
  %13 = load i8, ptr %12, align 1, !tbaa !52
  ret i8 %13
}

; Function Attrs: mustprogress uwtable
define noundef zeroext i16 @_ZNK6icu_7716BytesTrieBuilder14getElementUnitEii(ptr noundef nonnull align 8 dereferenceable(56) %0, i32 noundef %1, i32 noundef %2) unnamed_addr #1 align 2 {
  %4 = alloca ptr, align 8
  %5 = alloca i32, align 4
  %6 = alloca i32, align 4
  store ptr %0, ptr %4, align 8, !tbaa !37
  store i32 %1, ptr %5, align 4, !tbaa !14
  store i32 %2, ptr %6, align 4, !tbaa !14
  %7 = load ptr, ptr %4, align 8
  %8 = getelementptr inbounds nuw %"class.icu_77::BytesTrieBuilder", ptr %7, i32 0, i32 2
  %9 = load ptr, ptr %8, align 8, !tbaa !46
  %10 = load i32, ptr %5, align 4, !tbaa !14
  %11 = sext i32 %10 to i64
  %12 = getelementptr inbounds %"class.icu_77::BytesTrieElement", ptr %9, i64 %11
  %13 = load i32, ptr %6, align 4, !tbaa !14
  %14 = getelementptr inbounds nuw %"class.icu_77::BytesTrieBuilder", ptr %7, i32 0, i32 1
  %15 = load ptr, ptr %14, align 8, !tbaa !41
  %16 = call noundef signext i8 @_ZNK6icu_7716BytesTrieElement6charAtEiRKNS_10CharStringE(ptr noundef nonnull align 4 dereferenceable(8) %12, i32 noundef %13, ptr noundef nonnull align 8 dereferenceable(60) %15)
  %17 = zext i8 %16 to i16
  ret i16 %17
}