; Function Attrs: mustprogress nofree norecurse nosync nounwind willreturn memory(read, inaccessiblemem: none) uwtable
define noundef zeroext range(i16 0, 256) i16 @_ZNK6icu_7716BytesTrieBuilder14getElementUnitEii(ptr noundef nonnull readonly align 8 captures(none) dereferenceable(56) %0, i32 noundef %1, i32 noundef %2) unnamed_addr #14 align 2 {
  %4 = getelementptr inbounds nuw i8, ptr %0, i64 24
  %5 = load ptr, ptr %4, align 8, !tbaa !30
  %6 = sext i32 %1 to i64
  %7 = getelementptr inbounds %"class.icu_77::BytesTrieElement", ptr %5, i64 %6
  %8 = getelementptr inbounds nuw i8, ptr %0, i64 16
  %9 = load ptr, ptr %8, align 8, !tbaa !23
  %10 = load i32, ptr %7, align 4, !tbaa !17
  %.0.p.i.i = tail call i32 @llvm.abs.i32(i32 %10, i1 false)
  %.0.i.i = add nuw i32 %.0.p.i.i, 1
  %11 = load ptr, ptr %9, align 8, !tbaa !3
  %12 = zext nneg i32 %.0.i.i to i64
  %13 = getelementptr inbounds nuw i8, ptr %11, i64 %12
  %14 = sext i32 %2 to i64
  %15 = getelementptr inbounds i8, ptr %13, i64 %14
  %16 = load i8, ptr %15, align 1, !tbaa !20
  %17 = zext i8 %16 to i16
  ret i16 %17
}